target datalayout = "e-m:e-p270:32:32-p271:32:32-p272:64:64-i64:64-i128:128-f80:128-n8:16:32:64-S128"
target triple = "x86_64-pc-linux-gnu"

%class.LogTagSet = type { ptr, i64, [5 x i32], [4 x i8], %class.LogOutputList, %class.LogDecorators, ptr }
%class.LogOutputList = type <{ [6 x ptr], i32, [4 x i8] }>
%class.LogDecorators = type { i32 }
%class.PSOldGen = type { ptr, ptr, %class.ObjectStartArray, ptr, ptr, ptr, i64, i64 }
%class.ObjectStartArray = type { [8 x i8], %class.PSVirtualSpace, ptr }
%class.PSVirtualSpace = type <{ ptr, i64, ptr, ptr, ptr, ptr, i8, [7 x i8] }>
%class.MemRegion = type { ptr, i64 }
%class.ParallelScavengeHeap = type { %class.CollectedHeap, ptr, ptr, ptr, ptr, ptr, %class.WorkerThreads }
%class.CollectedHeap = type { ptr, ptr, i64, i64, %class.SoftRefPolicy, %class.MemRegion, i8, i64, i32, i32, i32, i32, ptr, ptr }
%class.SoftRefPolicy = type { i8, i8 }
%class.WorkerThreads = type { ptr, ptr, ptr, i32, i32, i32, %class.WorkerTaskDispatcher }
%class.WorkerTaskDispatcher = type { ptr, i32, i32, %class.Semaphore, %class.Semaphore }
%class.Semaphore = type { %class.PosixSemaphore }
%class.PosixSemaphore = type { %union.sem_t }
%union.sem_t = type { i64, [24 x i8] }

@.str.10 = private unnamed_addr constant [39 x i8] c"Shrinking %s from %luK by %luK to %luK\00", align 1
@_ZN16LogTagSetMappingILN6LogTag4typeE49ELS1_0ELS1_0ELS1_0ELS1_0ELS1_0EE7_tagsetE = linkonce_odr hidden global %class.LogTagSet zeroinitializer, comdat, align 8
@_ZN8Universe14_collectedHeapE = external global ptr, align 8
@.str.22 = private unnamed_addr constant [10 x i8] c"ParOldGen\00", align 1
@_ZN6Thread12_thr_currentE = external thread_local global ptr, align 8

; Function Attrs: mustprogress nounwind uwtable
define linkonce_odr hidden noundef ptr @_ZN8Universe4heapEv() #1 comdat align 2 {
  %1 = load ptr, ptr @_ZN8Universe14_collectedHeapE, align 8
  ret ptr %1
}

; Function Attrs: mustprogress nounwind uwtable
define linkonce_odr hidden noundef zeroext i1 @_ZNK13LogOutputList8is_levelEN8LogLevel4typeE(ptr noundef nonnull align 8 dereferenceable(52) %0, i32 noundef %1) #1 comdat align 2 {
  %3 = alloca ptr, align 8
  %4 = alloca i32, align 4
  store ptr %0, ptr %3, align 8
  store i32 %1, ptr %4, align 4
  %5 = load ptr, ptr %3, align 8
  %6 = getelementptr inbounds %class.LogOutputList, ptr %5, i32 0, i32 0
  %7 = load i32, ptr %4, align 4
  %8 = zext i32 %7 to i64
  %9 = getelementptr inbounds [6 x ptr], ptr %6, i64 0, i64 %8
  %10 = load volatile ptr, ptr %9, align 8
  %11 = icmp ne ptr %10, null
  ret i1 %11
}

; Function Attrs: mustprogress nounwind uwtable
define linkonce_odr hidden noundef ptr @_ZN6Thread15current_or_nullEv() #1 comdat align 2 {
  %1 = call align 8 ptr @llvm.threadlocal.address.p0(ptr align 8 @_ZN6Thread12_thr_currentE)
  %2 = load ptr, ptr %1, align 8
  ret ptr %2
}

; Function Attrs: mustprogress nounwind uwtable
define linkonce_odr hidden noundef ptr @_ZN13CollectedHeap10named_heapI20ParallelScavengeHeapEEPT_NS_4NameE(i32 noundef %0) #1 comdat align 2 {
  %2 = alloca i32, align 4
  %3 = alloca ptr, align 8
  store i32 %0, ptr %2, align 4
  %4 = call noundef ptr @_ZN8Universe4heapEv()
  store ptr %4, ptr %3, align 8
  %5 = load ptr, ptr %3, align 8
  ret ptr %5
}

; Function Attrs: mustprogress nounwind uwtable
define linkonce_odr hidden noundef i64 @_Z13pointer_deltaPKP12HeapWordImplS2_(ptr noundef %0, ptr noundef %1) #1 comdat {
  %3 = alloca ptr, align 8
  %4 = alloca ptr, align 8
  store ptr %0, ptr %3, align 8
  store ptr %1, ptr %4, align 8
  %5 = load ptr, ptr %3, align 8
  %6 = load ptr, ptr %4, align 8
  %7 = call noundef i64 @_Z13pointer_deltaPVKvS0_m(ptr noundef %5, ptr noundef %6, i64 noundef 8)
  ret i64 %7
}

; Function Attrs: mustprogress nounwind uwtable
define linkonce_odr hidden noundef zeroext i1 @_ZNK9LogTagSet8is_levelEN8LogLevel4typeE(ptr noundef nonnull align 8 dereferenceable(112) %0, i32 noundef %1) #1 comdat align 2 {
  %3 = alloca ptr, align 8
  %4 = alloca i32, align 4
  store ptr %0, ptr %3, align 8
  store i32 %1, ptr %4, align 4
  %5 = load ptr, ptr %3, align 8
  %6 = getelementptr inbounds %class.LogTagSet, ptr %5, i32 0, i32 4
  %7 = load i32, ptr %4, align 4
  %8 = call noundef zeroext i1 @_ZNK13LogOutputList8is_levelEN8LogLevel4typeE(ptr noundef nonnull align 8 dereferenceable(52) %6, i32 noundef %7)
  ret i1 %8
}

; Function Attrs: mustprogress nounwind uwtable
define linkonce_odr hidden noundef nonnull align 8 dereferenceable(112) ptr @_ZN16LogTagSetMappingILN6LogTag4typeE49ELS1_0ELS1_0ELS1_0ELS1_0ELS1_0EE6tagsetEv() #1 comdat align 2 {
  ret ptr @_ZN16LogTagSetMappingILN6LogTag4typeE49ELS1_0ELS1_0ELS1_0ELS1_0ELS1_0EE7_tagsetE
}

; Function Attrs: mustprogress nounwind uwtable
define linkonce_odr hidden noundef i64 @_Z13pointer_deltaPVKvS0_m(ptr noundef %0, ptr noundef %1, i64 noundef %2) #1 comdat {
  %4 = alloca ptr, align 8
  %5 = alloca ptr, align 8
  %6 = alloca i64, align 8
  store ptr %0, ptr %4, align 8
  store ptr %1, ptr %5, align 8
  store i64 %2, ptr %6, align 8
  %7 = load ptr, ptr %4, align 8
  %8 = ptrtoint ptr %7 to i64
  %9 = load ptr, ptr %5, align 8
  %10 = ptrtoint ptr %9 to i64
  %11 = sub i64 %8, %10
  %12 = load i64, ptr %6, align 8
  %13 = udiv i64 %11, %12
  ret i64 %13
}

; Function Attrs: mustprogress nounwind uwtable
define linkonce_odr hidden noundef ptr @_ZNK14PSVirtualSpace18committed_low_addrEv(ptr noundef nonnull align 8 dereferenceable(49) %0) #1 comdat align 2 {
  %2 = alloca ptr, align 8
  store ptr %0, ptr %2, align 8
  %3 = load ptr, ptr %2, align 8
  %4 = getelementptr inbounds %class.PSVirtualSpace, ptr %3, i32 0, i32 4
  %5 = load ptr, ptr %4, align 8
  ret ptr %5
}

; Function Attrs: mustprogress nounwind uwtable
define linkonce_odr hidden noundef ptr @_ZNK14PSVirtualSpace19committed_high_addrEv(ptr noundef nonnull align 8 dereferenceable(49) %0) #1 comdat align 2 {
  %2 = alloca ptr, align 8
  store ptr %0, ptr %2, align 8
  %3 = load ptr, ptr %2, align 8
  %4 = getelementptr inbounds %class.PSVirtualSpace, ptr %3, i32 0, i32 5
  %5 = load ptr, ptr %4, align 8
  ret ptr %5
}

; Function Attrs: mustprogress nounwind uwtable
define linkonce_odr hidden noundef ptr @_ZNK8PSOldGen12object_spaceEv(ptr noundef nonnull align 8 dereferenceable(128) %0) #1 comdat align 2 {
  %2 = alloca ptr, align 8
  store ptr %0, ptr %2, align 8
  %3 = load ptr, ptr %2, align 8
  %4 = getelementptr inbounds %class.PSOldGen, ptr %3, i32 0, i32 3
  %5 = load ptr, ptr %4, align 8
  ret ptr %5
}

; Function Attrs: mustprogress nounwind uwtable
define linkonce_odr hidden noundef nonnull align 8 dereferenceable(120) ptr @_ZN20ParallelScavengeHeap7workersEv(ptr noundef nonnull align 8 dereferenceable(264) %0) #1 comdat align 2 {
  %2 = alloca ptr, align 8
  store ptr %0, ptr %2, align 8
  %3 = load ptr, ptr %2, align 8
  %4 = getelementptr inbounds %class.ParallelScavengeHeap, ptr %3, i32 0, i32 6
  ret ptr %4
}

; Function Attrs: mustprogress nounwind uwtable
define linkonce_odr hidden noundef ptr @_ZN6Thread7currentEv() #1 comdat align 2 {
  %1 = alloca ptr, align 8
  %2 = call noundef ptr @_ZN6Thread15current_or_nullEv()
  store ptr %2, ptr %1, align 8
  %3 = load ptr, ptr %1, align 8
  ret ptr %3
}

; Function Attrs: mustprogress nounwind uwtable
define linkonce_odr hidden noundef ptr @_ZN20ParallelScavengeHeap4heapEv() #1 comdat align 2 {
  %1 = call noundef ptr @_ZN13CollectedHeap10named_heapI20ParallelScavengeHeapEEPT_NS_4NameE(i32 noundef 2)
  ret ptr %1
}

; Function Attrs: mustprogress nounwind uwtable
define linkonce_odr hidden noundef ptr @_ZN8PSOldGen11start_arrayEv(ptr noundef nonnull align 8 dereferenceable(128) %0) #1 comdat align 2 {
  %2 = alloca ptr, align 8
  store ptr %0, ptr %2, align 8
  %3 = load ptr, ptr %2, align 8
  %4 = getelementptr inbounds %class.PSOldGen, ptr %3, i32 0, i32 2
  ret ptr %4
}

; Function Attrs: mustprogress nounwind uwtable
define linkonce_odr hidden noundef i64 @_ZNK9MemRegion9word_sizeEv(ptr noundef nonnull align 8 dereferenceable(16) %0) #1 comdat align 2 {
  %2 = alloca ptr, align 8
  store ptr %0, ptr %2, align 8
  %3 = load ptr, ptr %2, align 8
  %4 = getelementptr inbounds %class.MemRegion, ptr %3, i32 0, i32 1
  %5 = load i64, ptr %4, align 8
  ret i64 %5
}

; Function Attrs: mustprogress nounwind uwtable
define linkonce_odr hidden void @_ZN9MemRegionC2EPP12HeapWordImplS2_(ptr noundef nonnull align 8 dereferenceable(16) %0, ptr noundef %1, ptr noundef %2) unnamed_addr #1 comdat align 2 {
  %4 = alloca ptr, align 8
  %5 = alloca ptr, align 8
  %6 = alloca ptr, align 8
  store ptr %0, ptr %4, align 8
  store ptr %1, ptr %5, align 8
  store ptr %2, ptr %6, align 8
  %7 = load ptr, ptr %4, align 8
  %8 = getelementptr inbounds %class.MemRegion, ptr %7, i32 0, i32 0
  %9 = load ptr, ptr %5, align 8
  store ptr %9, ptr %8, align 8
  %10 = getelementptr inbounds %class.MemRegion, ptr %7, i32 0, i32 1
  %11 = load ptr, ptr %6, align 8
  %12 = load ptr, ptr %5, align 8
  %13 = call noundef i64 @_Z13pointer_deltaPKP12HeapWordImplS2_(ptr noundef %11, ptr noundef %12)
  store i64 %13, ptr %10, align 8
  ret void
}

; Function Attrs: mustprogress nounwind uwtable
define linkonce_odr hidden noundef ptr @_ZNK14PSVirtualSpace4highEv(ptr noundef nonnull align 8 dereferenceable(49) %0) #1 comdat align 2 {
  %2 = alloca ptr, align 8
  store ptr %0, ptr %2, align 8
  %3 = load ptr, ptr %2, align 8
  %4 = call noundef ptr @_ZNK14PSVirtualSpace19committed_high_addrEv(ptr noundef nonnull align 8 dereferenceable(49) %3)
  ret ptr %4
}

; Function Attrs: mustprogress nounwind uwtable
define linkonce_odr hidden noundef ptr @_ZNK14PSVirtualSpace3lowEv(ptr noundef nonnull align 8 dereferenceable(49) %0) #1 comdat align 2 {
  %2 = alloca ptr, align 8
  store ptr %0, ptr %2, align 8
  %3 = load ptr, ptr %2, align 8
  %4 = call noundef ptr @_ZNK14PSVirtualSpace18committed_low_addrEv(ptr noundef nonnull align 8 dereferenceable(49) %3)
  ret ptr %4
}

; Function Attrs: mustprogress nounwind uwtable
define internal noundef i64 @_ZL14alignment_maskImTnNSt9enable_ifIXcvbsr3std11is_integralIT_EE5valueEiE4typeELi0EES1_S1_(i64 noundef %0) #1 {
  %2 = alloca i64, align 8
  store i64 %0, ptr %2, align 8
  %3 = load i64, ptr %2, align 8
  %4 = sub i64 %3, 1
  ret i64 %4
}

; Function Attrs: mustprogress nounwind uwtable
define linkonce_odr hidden noundef ptr @_ZNK8PSOldGen4nameEv(ptr noundef nonnull align 8 dereferenceable(128) %0) #1 comdat align 2 {
  %2 = alloca ptr, align 8
  store ptr %0, ptr %2, align 8
  ret ptr @.str.22
}

; Function Attrs: mustprogress nounwind uwtable
define linkonce_odr hidden noundef zeroext i1 @_ZN7LogImplILN6LogTag4typeE49ELS1_0ELS1_0ELS1_0ELS1_0ELS1_0EE8is_levelEN8LogLevel4typeE(i32 noundef %0) #1 comdat align 2 {
  %2 = alloca i32, align 4
  store i32 %0, ptr %2, align 4
  %3 = call noundef nonnull align 8 dereferenceable(112) ptr @_ZN16LogTagSetMappingILN6LogTag4typeE49ELS1_0ELS1_0ELS1_0ELS1_0ELS1_0EE6tagsetEv()
  %4 = load i32, ptr %2, align 4
  %5 = call noundef zeroext i1 @_ZNK9LogTagSet8is_levelEN8LogLevel4typeE(ptr noundef nonnull align 8 dereferenceable(112) %3, i32 noundef %4)
  ret i1 %5
}

; Function Attrs: mustprogress nounwind uwtable
define linkonce_odr hidden noundef i64 @_ZNK14PSVirtualSpace14committed_sizeEv(ptr noundef nonnull align 8 dereferenceable(49) %0) #1 comdat align 2 {
  %2 = alloca ptr, align 8
  store ptr %0, ptr %2, align 8
  %3 = load ptr, ptr %2, align 8
  %4 = call noundef ptr @_ZNK14PSVirtualSpace19committed_high_addrEv(ptr noundef nonnull align 8 dereferenceable(49) %3)
  %5 = call noundef ptr @_ZNK14PSVirtualSpace18committed_low_addrEv(ptr noundef nonnull align 8 dereferenceable(49) %3)
  %6 = call noundef i64 @_Z13pointer_deltaPVKvS0_m(ptr noundef %4, ptr noundef %5, i64 noundef 1)
  ret i64 %6
}

; Function Attrs: mustprogress nounwind uwtable
define hidden void @_ZN8PSOldGen11post_resizeEv(ptr noundef nonnull align 8 dereferenceable(128) %0) #1 align 2 {
  %2 = alloca ptr, align 8
  %3 = alloca %class.MemRegion, align 8
  %4 = alloca i64, align 8
  %5 = alloca %class.MemRegion, align 8
  %6 = alloca %class.MemRegion, align 8
  %7 = alloca ptr, align 8
  %8 = alloca %class.MemRegion, align 8
  store ptr %0, ptr %2, align 8
  %9 = load ptr, ptr %2, align 8
  %10 = call noundef ptr @_ZNK8PSOldGen13virtual_spaceEv(ptr noundef nonnull align 8 dereferenceable(128) %9)
  %11 = call noundef ptr @_ZNK14PSVirtualSpace3lowEv(ptr noundef nonnull align 8 dereferenceable(49) %10)
  %12 = call noundef ptr @_ZNK8PSOldGen13virtual_spaceEv(ptr noundef nonnull align 8 dereferenceable(128) %9)
  %13 = call noundef ptr @_ZNK14PSVirtualSpace4highEv(ptr noundef nonnull align 8 dereferenceable(49) %12)
  call void @_ZN9MemRegionC2EPP12HeapWordImplS2_(ptr noundef nonnull align 8 dereferenceable(16) %3, ptr noundef %11, ptr noundef %13)
  %14 = call noundef i64 @_ZNK9MemRegion9word_sizeEv(ptr noundef nonnull align 8 dereferenceable(16) %3)
  store i64 %14, ptr %4, align 8
  %15 = call noundef ptr @_ZN8PSOldGen11start_arrayEv(ptr noundef nonnull align 8 dereferenceable(128) %9)
  call void @llvm.memcpy.p0.p0.i64(ptr align 8 %5, ptr align 8 %3, i64 16, i1 false)
  %16 = getelementptr inbounds { ptr, i64 }, ptr %5, i32 0, i32 0
  %17 = load ptr, ptr %16, align 8
  %18 = getelementptr inbounds { ptr, i64 }, ptr %5, i32 0, i32 1
  %19 = load i64, ptr %18, align 8
  call void @_ZN16ObjectStartArray18set_covered_regionE9MemRegion(ptr noundef nonnull align 8 dereferenceable(72) %15, ptr %17, i64 %19)
  %20 = call noundef ptr @_ZN20ParallelScavengeHeap4heapEv()
  %21 = call noundef ptr @_ZN20ParallelScavengeHeap10card_tableEv(ptr noundef nonnull align 8 dereferenceable(264) %20)
  call void @llvm.memcpy.p0.p0.i64(ptr align 8 %6, ptr align 8 %3, i64 16, i1 false)
  %22 = getelementptr inbounds { ptr, i64 }, ptr %6, i32 0, i32 0
  %23 = load ptr, ptr %22, align 8
  %24 = getelementptr inbounds { ptr, i64 }, ptr %6, i32 0, i32 1
  %25 = load i64, ptr %24, align 8
  call void @_ZN9CardTable21resize_covered_regionE9MemRegion(ptr noundef nonnull align 8 dereferenceable(88) %21, ptr %23, i64 %25)
  %26 = call noundef ptr @_ZN6Thread7currentEv()
  %27 = load ptr, ptr %26, align 8
  %28 = getelementptr inbounds ptr, ptr %27, i64 6
  %29 = load ptr, ptr %28, align 8
  %30 = call noundef zeroext i1 %29(ptr noundef nonnull align 8 dereferenceable(888) %26)
  br i1 %30, label %31, label %34

31:                                               ; preds = %1
  %32 = call noundef ptr @_ZN20ParallelScavengeHeap4heapEv()
  %33 = call noundef nonnull align 8 dereferenceable(120) ptr @_ZN20ParallelScavengeHeap7workersEv(ptr noundef nonnull align 8 dereferenceable(264) %32)
  br label %35

34:                                               ; preds = %1
  br label %35

35:                                               ; preds = %34, %31
  %36 = phi ptr [ %33, %31 ], [ null, %34 ]
  store ptr %36, ptr %7, align 8
  %37 = call noundef ptr @_ZNK8PSOldGen12object_spaceEv(ptr noundef nonnull align 8 dereferenceable(128) %9)
  call void @llvm.memcpy.p0.p0.i64(ptr align 8 %8, ptr align 8 %3, i64 16, i1 false)
  %38 = load ptr, ptr %7, align 8
  %39 = getelementptr inbounds { ptr, i64 }, ptr %8, i32 0, i32 0
  %40 = load ptr, ptr %39, align 8
  %41 = getelementptr inbounds { ptr, i64 }, ptr %8, i32 0, i32 1
  %42 = load i64, ptr %41, align 8
  %43 = load ptr, ptr %37, align 8
  %44 = getelementptr inbounds ptr, ptr %43, i64 3
  %45 = load ptr, ptr %44, align 8
  call void %45(ptr noundef nonnull align 8 dereferenceable(56) %37, ptr %40, i64 %42, i1 noundef zeroext false, i1 noundef zeroext false, i1 noundef zeroext true, ptr noundef %38)
  ret void
}

; Function Attrs: mustprogress nounwind uwtable
define linkonce_odr hidden noundef i64 @_Z10align_downImmTnNSt9enable_ifIXcvbsr3std11is_integralIT_EE5valueEiE4typeELi0EES1_S1_T0_(i64 noundef %0, i64 noundef %1) #1 comdat {
  %3 = alloca i64, align 8
  %4 = alloca i64, align 8
  %5 = alloca i64, align 8
  store i64 %0, ptr %3, align 8
  store i64 %1, ptr %4, align 8
  %6 = load i64, ptr %3, align 8
  %7 = load i64, ptr %4, align 8
  %8 = call noundef i64 @_ZL14alignment_maskImTnNSt9enable_ifIXcvbsr3std11is_integralIT_EE5valueEiE4typeELi0EES1_S1_(i64 noundef %7)
  %9 = xor i64 %8, -1
  %10 = and i64 %6, %9
  store i64 %10, ptr %5, align 8
  %11 = load i64, ptr %5, align 8
  ret i64 %11
}

; Function Attrs: mustprogress nounwind uwtable
define linkonce_odr hidden noundef i64 @_ZNK14PSVirtualSpace9alignmentEv(ptr noundef nonnull align 8 dereferenceable(49) %0) #1 comdat align 2 {
  %2 = alloca ptr, align 8
  store ptr %0, ptr %2, align 8
  %3 = load ptr, ptr %2, align 8
  %4 = getelementptr inbounds %class.PSVirtualSpace, ptr %3, i32 0, i32 1
  %5 = load i64, ptr %4, align 8
  ret i64 %5
}

; Function Attrs: mustprogress nounwind uwtable
define linkonce_odr hidden noundef ptr @_ZNK8PSOldGen13virtual_spaceEv(ptr noundef nonnull align 8 dereferenceable(128) %0) #1 comdat align 2 {
  %2 = alloca ptr, align 8
  store ptr %0, ptr %2, align 8
  %3 = load ptr, ptr %2, align 8
  %4 = getelementptr inbounds %class.PSOldGen, ptr %3, i32 0, i32 1
  %5 = load ptr, ptr %4, align 8
  ret ptr %5
}

; Function Attrs: mustprogress nounwind uwtable
define hidden void @_ZN8PSOldGen6shrinkEm(ptr noundef nonnull align 8 dereferenceable(128) %0, i64 noundef %1) #1 align 2 {
  %3 = alloca ptr, align 8
  %4 = alloca i64, align 8
  %5 = alloca i64, align 8
  %6 = alloca i64, align 8
  %7 = alloca i64, align 8
  store ptr %0, ptr %3, align 8
  store i64 %1, ptr %4, align 8
  %8 = load ptr, ptr %3, align 8
  %9 = load i64, ptr %4, align 8
  %10 = call noundef ptr @_ZNK8PSOldGen13virtual_spaceEv(ptr noundef nonnull align 8 dereferenceable(128) %8)
  %11 = call noundef i64 @_ZNK14PSVirtualSpace9alignmentEv(ptr noundef nonnull align 8 dereferenceable(49) %10)
  %12 = call noundef i64 @_Z10align_downImmTnNSt9enable_ifIXcvbsr3std11is_integralIT_EE5valueEiE4typeELi0EES1_S1_T0_(i64 noundef %9, i64 noundef %11)
  store i64 %12, ptr %5, align 8
  %13 = load i64, ptr %5, align 8
  %14 = icmp ugt i64 %13, 0
  br i1 %14, label %15, label %38

15:                                               ; preds = %2
  %16 = call noundef ptr @_ZNK8PSOldGen13virtual_spaceEv(ptr noundef nonnull align 8 dereferenceable(128) %8)
  %17 = load i64, ptr %4, align 8
  %18 = load ptr, ptr %16, align 8
  %19 = getelementptr inbounds ptr, ptr %18, i64 1
  %20 = load ptr, ptr %19, align 8
  %21 = call noundef zeroext i1 %20(ptr noundef nonnull align 8 dereferenceable(49) %16, i64 noundef %17)
  call void @_ZN8PSOldGen11post_resizeEv(ptr noundef nonnull align 8 dereferenceable(128) %8)
  %22 = call noundef ptr @_ZNK8PSOldGen13virtual_spaceEv(ptr noundef nonnull align 8 dereferenceable(128) %8)
  %23 = call noundef i64 @_ZNK14PSVirtualSpace14committed_sizeEv(ptr noundef nonnull align 8 dereferenceable(49) %22)
  store i64 %23, ptr %6, align 8
  %24 = load i64, ptr %6, align 8
  %25 = load i64, ptr %4, align 8
  %26 = add i64 %24, %25
  store i64 %26, ptr %7, align 8
  %27 = call noundef zeroext i1 @_ZN7LogImplILN6LogTag4typeE49ELS1_0ELS1_0ELS1_0ELS1_0ELS1_0EE8is_levelEN8LogLevel4typeE(i32 noundef 2)
  br i1 %27, label %29, label %28

28:                                               ; preds = %15
  br label %37

29:                                               ; preds = %15
  %30 = call noundef ptr @_ZNK8PSOldGen4nameEv(ptr noundef nonnull align 8 dereferenceable(128) %8)
  %31 = load i64, ptr %7, align 8
  %32 = udiv i64 %31, 1024
  %33 = load i64, ptr %4, align 8
  %34 = udiv i64 %33, 1024
  %35 = load i64, ptr %6, align 8
  %36 = udiv i64 %35, 1024
  call void (ptr, ...) @_ZN7LogImplILN6LogTag4typeE49ELS1_0ELS1_0ELS1_0ELS1_0ELS1_0EE5writeILN8LogLevel4typeE2EEEvPKcz(ptr noundef @.str.10, ptr noundef %30, i64 noundef %32, i64 noundef %34, i64 noundef %36)
  br label %37

37:                                               ; preds = %29, %28
  br label %38

38:                                               ; preds = %37, %2
  ret void
}