; Function Attrs: mustprogress nounwind uwtable
define hidden void @_ZN8PSOldGen6shrinkEm(ptr noundef nonnull align 8 dereferenceable(128) %0, i64 noundef %1) local_unnamed_addr #0 align 2 {
  %3 = getelementptr inbounds i8, ptr %0, i64 8
  %4 = load ptr, ptr %3, align 8
  %5 = getelementptr inbounds i8, ptr %4, i64 8
  %6 = load i64, ptr %5, align 8
  %7 = sub i64 0, %6
  %8 = and i64 %7, %1
  %.not = icmp eq i64 %8, 0
  br i1 %.not, label %54, label %9

9:                                                ; preds = %2
  %10 = load ptr, ptr %4, align 8
  %11 = getelementptr inbounds i8, ptr %10, i64 8
  %12 = load ptr, ptr %11, align 8
  %13 = tail call noundef zeroext i1 %12(ptr noundef nonnull align 8 dereferenceable(49) %4, i64 noundef %1) #7
  %14 = load ptr, ptr %3, align 8
  %15 = getelementptr inbounds i8, ptr %14, i64 32
  %16 = load ptr, ptr %15, align 8
  %17 = getelementptr inbounds i8, ptr %14, i64 40
  %18 = load ptr, ptr %17, align 8
  %19 = ptrtoint ptr %18 to i64
  %20 = ptrtoint ptr %16 to i64
  %21 = sub i64 %19, %20
  %22 = lshr i64 %21, 3
  %23 = getelementptr inbounds i8, ptr %0, i64 16
  tail call void @_ZN16ObjectStartArray18set_covered_regionE9MemRegion(ptr noundef nonnull align 8 dereferenceable(72) %23, ptr %16, i64 %22) #7
  %24 = load ptr, ptr @_ZN8Universe14_collectedHeapE, align 8
  %25 = tail call noundef ptr @_ZN20ParallelScavengeHeap10card_tableEv(ptr noundef nonnull align 8 dereferenceable(264) %24) #7
  tail call void @_ZN9CardTable21resize_covered_regionE9MemRegion(ptr noundef nonnull align 8 dereferenceable(88) %25, ptr %16, i64 %22) #7
  %26 = tail call align 8 ptr @llvm.threadlocal.address.p0(ptr align 8 @_ZN6Thread12_thr_currentE)
  %27 = load ptr, ptr %26, align 8
  %28 = load ptr, ptr %27, align 8
  %29 = getelementptr inbounds i8, ptr %28, i64 48
  %30 = load ptr, ptr %29, align 8
  %31 = tail call noundef zeroext i1 %30(ptr noundef nonnull align 8 dereferenceable(888) %27) #7
  %32 = load ptr, ptr @_ZN8Universe14_collectedHeapE, align 8
  %33 = getelementptr inbounds i8, ptr %32, i64 144
  %34 = select i1 %31, ptr %33, ptr null
  %35 = getelementptr inbounds i8, ptr %0, i64 88
  %36 = load ptr, ptr %35, align 8
  %37 = load ptr, ptr %36, align 8
  %38 = getelementptr inbounds i8, ptr %37, i64 24
  %39 = load ptr, ptr %38, align 8
  tail call void %39(ptr noundef nonnull align 8 dereferenceable(56) %36, ptr %16, i64 %22, i1 noundef zeroext false, i1 noundef zeroext false, i1 noundef zeroext true, ptr noundef %34) #7
  %40 = load ptr, ptr %3, align 8
  %41 = getelementptr inbounds i8, ptr %40, i64 40
  %42 = load ptr, ptr %41, align 8
  %43 = getelementptr inbounds i8, ptr %40, i64 32
  %44 = load ptr, ptr %43, align 8
  %45 = load volatile ptr, ptr getelementptr inbounds (i8, ptr @_ZN16LogTagSetMappingILN6LogTag4typeE49ELS1_0ELS1_0ELS1_0ELS1_0ELS1_0EE7_tagsetE, i64 56), align 8
  %.not8 = icmp eq ptr %45, null
  br i1 %.not8, label %54, label %46

46:                                               ; preds = %9
  %47 = ptrtoint ptr %42 to i64
  %48 = ptrtoint ptr %44 to i64
  %49 = sub i64 %47, %48
  %50 = add i64 %49, %1
  %51 = lshr i64 %50, 10
  %52 = lshr i64 %1, 10
  %53 = lshr i64 %49, 10
  tail call void (ptr, ...) @_ZN7LogImplILN6LogTag4typeE49ELS1_0ELS1_0ELS1_0ELS1_0ELS1_0EE5writeILN8LogLevel4typeE2EEEvPKcz(ptr noundef nonnull @.str.10, ptr noundef nonnull @.str.22, i64 noundef %51, i64 noundef %52, i64 noundef %53)
  br label %54

54:                                               ; preds = %46, %9, %2
  ret void
}